target datalayout = "e-m:e-p270:32:32-p271:32:32-p272:64:64-i64:64-i128:128-f80:128-n8:16:32:64-S128"
target triple = "x86_64-pc-linux-gnu"

%"struct.faiss::(anonymous namespace)::ArgsortComparator" = type { ptr }

; Function Attrs: mustprogress uwtable
define void @_ZN5faiss12fvec_argsortEmPKfPm(i64 noundef %0, ptr noundef %1, ptr noundef %2) #0 {
  %4 = alloca i64, align 8
  %5 = alloca ptr, align 8
  %6 = alloca ptr, align 8
  %7 = alloca i64, align 8
  %8 = alloca %"struct.faiss::(anonymous namespace)::ArgsortComparator", align 8
  %9 = alloca %"struct.faiss::(anonymous namespace)::ArgsortComparator", align 8
  store i64 %0, ptr %4, align 8
  store ptr %1, ptr %5, align 8
  store ptr %2, ptr %6, align 8
  store i64 0, ptr %7, align 8
  br label %10

10:                                               ; preds = %19, %3
  %11 = load i64, ptr %7, align 8
  %12 = load i64, ptr %4, align 8
  %13 = icmp ult i64 %11, %12
  br i1 %13, label %14, label %22

14:                                               ; preds = %10
  %15 = load i64, ptr %7, align 8
  %16 = load ptr, ptr %6, align 8
  %17 = load i64, ptr %7, align 8
  %18 = getelementptr inbounds i64, ptr %16, i64 %17
  store i64 %15, ptr %18, align 8
  br label %19

19:                                               ; preds = %14
  %20 = load i64, ptr %7, align 8
  %21 = add i64 %20, 1
  store i64 %21, ptr %7, align 8
  br label %10, !llvm.loop !5

22:                                               ; preds = %10
  %23 = getelementptr inbounds %"struct.faiss::(anonymous namespace)::ArgsortComparator", ptr %8, i32 0, i32 0
  %24 = load ptr, ptr %5, align 8
  store ptr %24, ptr %23, align 8
  %25 = load ptr, ptr %6, align 8
  %26 = load ptr, ptr %6, align 8
  %27 = load i64, ptr %4, align 8
  %28 = getelementptr inbounds i64, ptr %26, i64 %27
  call void @llvm.memcpy.p0.p0.i64(ptr align 8 %9, ptr align 8 %8, i64 8, i1 false)
  %29 = getelementptr inbounds %"struct.faiss::(anonymous namespace)::ArgsortComparator", ptr %9, i32 0, i32 0
  %30 = load ptr, ptr %29, align 8
  call void @_ZSt4sortIPmN5faiss12_GLOBAL__N_117ArgsortComparatorEEvT_S4_T0_(ptr noundef %25, ptr noundef %28, ptr %30)
  ret void
}