; Function Attrs: mustprogress nofree nosync nounwind memory(readwrite, inaccessiblemem: none) uwtable
define void @_ZN5faiss12fvec_argsortEmPKfPm(i64 noundef %0, ptr nocapture noundef readonly %1, ptr noundef %2) local_unnamed_addr #0 {
  %.not = icmp eq i64 %0, 0
  br i1 %.not, label %._crit_edge, label %.lr.ph

.lr.ph:                                           ; preds = %3, %.lr.ph
  %.011 = phi i64 [ %5, %.lr.ph ], [ 0, %3 ]
  %4 = getelementptr inbounds i64, ptr %2, i64 %.011
  store i64 %.011, ptr %4, align 8
  %5 = add nuw i64 %.011, 1
  %exitcond.not = icmp eq i64 %5, %0
  br i1 %exitcond.not, label %._crit_edge, label %.lr.ph, !llvm.loop !5

._crit_edge:                                      ; preds = %.lr.ph, %3
  %6 = getelementptr inbounds i64, ptr %2, i64 %0
  tail call fastcc void @_ZSt4sortIPmN5faiss12_GLOBAL__N_117ArgsortComparatorEEvT_S4_T0_(ptr noundef %2, ptr noundef %6, ptr %1)
  ret void
}